target datalayout = "e-m:e-p270:32:32-p271:32:32-p272:64:64-i64:64-i128:128-f80:128-n8:16:32:64-S128"
target triple = "x86_64-pc-linux-gnu"

%struct.mi_heap_s = type { ptr, %"struct.std::atomic.4", i64, i32, i64, [2 x i64], %struct.mi_random_cxt_s, i64, i64, i64, i64, i64, ptr, i8, i8, [129 x ptr], [75 x %struct.mi_page_queue_s] }
%"struct.std::atomic.4" = type { %"struct.std::__atomic_base.5" }
%"struct.std::__atomic_base.5" = type { ptr }
%struct.mi_random_cxt_s = type { [16 x i32], [16 x i32], i32, i8 }
%struct.mi_page_queue_s = type { ptr, ptr, i64 }
%struct.mi_os_mem_config_s = type { i64, i64, i64, i64, i64, i8, i8, i8 }

@_ZL16mi_os_mem_config = internal global %struct.mi_os_mem_config_s { i64 4096, i64 0, i64 4096, i64 33554432, i64 48, i8 1, i8 0, i8 1 }, align 8

; Function Attrs: inlinehint mustprogress nounwind uwtable
define internal noundef i64 @_ZL6mi_clzm(i64 noundef %0) #3 {
  %2 = alloca i64, align 8
  %3 = alloca i64, align 8
  store i64 %0, ptr %3, align 8, !tbaa !18
  %4 = load i64, ptr %3, align 8, !tbaa !18
  %5 = icmp eq i64 %4, 0
  br i1 %5, label %6, label %7

6:                                                ; preds = %1
  store i64 64, ptr %2, align 8
  br label %12

7:                                                ; preds = %1
  %8 = load i64, ptr %3, align 8, !tbaa !18
  %9 = call i64 @llvm.ctlz.i64(i64 %8, i1 true)
  %10 = trunc i64 %9 to i32
  %11 = sext i32 %10 to i64
  store i64 %11, ptr %2, align 8
  br label %12

12:                                               ; preds = %7, %6
  %13 = load i64, ptr %2, align 8
  ret i64 %13
}

; Function Attrs: inlinehint mustprogress nounwind uwtable
define internal noundef i64 @_ZL19_mi_wsize_from_sizem(i64 noundef %0) #3 {
  %2 = alloca i64, align 8
  store i64 %0, ptr %2, align 8, !tbaa !18
  %3 = load i64, ptr %2, align 8, !tbaa !18
  %4 = add i64 %3, 8
  %5 = sub i64 %4, 1
  %6 = udiv i64 %5, 8
  ret i64 %6
}

; Function Attrs: noinline noreturn nounwind uwtable
define linkonce_odr hidden void @__clang_call_terminate(ptr noundef %0) #7 comdat {
  %2 = call ptr @__cxa_begin_catch(ptr %0) #19
  call void @_ZSt9terminatev() #20
  unreachable
}

; Function Attrs: inlinehint mustprogress nounwind uwtable
define internal noundef i64 @_ZL12_mi_align_upmm(i64 noundef %0, i64 noundef %1) #3 {
  %3 = alloca i64, align 8
  %4 = alloca i64, align 8
  %5 = alloca i64, align 8
  %6 = alloca i64, align 8
  %7 = alloca i32, align 4
  store i64 %0, ptr %4, align 8, !tbaa !18
  store i64 %1, ptr %5, align 8, !tbaa !18
  call void @llvm.lifetime.start.p0(i64 8, ptr %6) #19
  %8 = load i64, ptr %5, align 8, !tbaa !18
  %9 = sub i64 %8, 1
  store i64 %9, ptr %6, align 8, !tbaa !18
  %10 = load i64, ptr %5, align 8, !tbaa !18
  %11 = load i64, ptr %6, align 8, !tbaa !18
  %12 = and i64 %10, %11
  %13 = icmp eq i64 %12, 0
  br i1 %13, label %14, label %21

14:                                               ; preds = %2
  %15 = load i64, ptr %4, align 8, !tbaa !18
  %16 = load i64, ptr %6, align 8, !tbaa !18
  %17 = add i64 %15, %16
  %18 = load i64, ptr %6, align 8, !tbaa !18
  %19 = xor i64 %18, -1
  %20 = and i64 %17, %19
  store i64 %20, ptr %3, align 8
  store i32 1, ptr %7, align 4
  br label %29

21:                                               ; preds = %2
  %22 = load i64, ptr %4, align 8, !tbaa !18
  %23 = load i64, ptr %6, align 8, !tbaa !18
  %24 = add i64 %22, %23
  %25 = load i64, ptr %5, align 8, !tbaa !18
  %26 = udiv i64 %24, %25
  %27 = load i64, ptr %5, align 8, !tbaa !18
  %28 = mul i64 %26, %27
  store i64 %28, ptr %3, align 8
  store i32 1, ptr %7, align 4
  br label %29

29:                                               ; preds = %21, %14
  call void @llvm.lifetime.end.p0(i64 8, ptr %6) #19
  %30 = load i64, ptr %3, align 8
  ret i64 %30
}

; Function Attrs: mustprogress nounwind uwtable
define hidden noundef i64 @_Z16_mi_os_page_sizev() #5 {
  %1 = load i64, ptr @_ZL16mi_os_mem_config, align 8, !tbaa !56
  ret i64 %1
}

; Function Attrs: mustprogress nounwind uwtable
define hidden noundef i64 @_Z12_mi_bin_sizem(i64 noundef %0) #5 {
  %2 = alloca i64, align 8
  store i64 %0, ptr %2, align 8, !tbaa !18
  %3 = load i64, ptr %2, align 8, !tbaa !18
  %4 = getelementptr inbounds nuw [75 x %struct.mi_page_queue_s], ptr getelementptr inbounds nuw (%struct.mi_heap_s, ptr @_mi_heap_empty, i32 0, i32 16), i64 0, i64 %3
  %5 = getelementptr inbounds nuw %struct.mi_page_queue_s, ptr %4, i32 0, i32 2
  %6 = load i64, ptr %5, align 8, !tbaa !300
  ret i64 %6
}

; Function Attrs: inlinehint mustprogress nounwind uwtable
define internal noundef i64 @_ZL6mi_binm(i64 noundef %0) #3 {
  %2 = alloca i64, align 8
  %3 = alloca i64, align 8
  %4 = alloca i64, align 8
  %5 = alloca i32, align 4
  %6 = alloca i64, align 8
  %7 = alloca i64, align 8
  store i64 %0, ptr %3, align 8, !tbaa !18
  call void @llvm.lifetime.start.p0(i64 8, ptr %4) #19
  %8 = load i64, ptr %3, align 8, !tbaa !18
  %9 = call noundef i64 @_ZL19_mi_wsize_from_sizem(i64 noundef %8)
  store i64 %9, ptr %4, align 8, !tbaa !18
  %10 = load i64, ptr %4, align 8, !tbaa !18
  %11 = icmp ule i64 %10, 8
  %12 = xor i1 %11, true
  %13 = xor i1 %12, true
  %14 = zext i1 %13 to i64
  %15 = call i64 @llvm.expect.i64(i64 %14, i64 1)
  %16 = icmp ne i64 %15, 0
  br i1 %16, label %17, label %27

17:                                               ; preds = %1
  %18 = load i64, ptr %4, align 8, !tbaa !18
  %19 = icmp ule i64 %18, 1
  br i1 %19, label %20, label %21

20:                                               ; preds = %17
  br label %25

21:                                               ; preds = %17
  %22 = load i64, ptr %4, align 8, !tbaa !18
  %23 = add i64 %22, 1
  %24 = and i64 %23, -2
  br label %25

25:                                               ; preds = %21, %20
  %26 = phi i64 [ 1, %20 ], [ %24, %21 ]
  store i64 %26, ptr %2, align 8
  store i32 1, ptr %5, align 4
  br label %52

27:                                               ; preds = %1
  %28 = load i64, ptr %4, align 8, !tbaa !18
  %29 = icmp ugt i64 %28, 8192
  %30 = xor i1 %29, true
  %31 = xor i1 %30, true
  %32 = zext i1 %31 to i64
  %33 = call i64 @llvm.expect.i64(i64 %32, i64 0)
  %34 = icmp ne i64 %33, 0
  br i1 %34, label %35, label %36

35:                                               ; preds = %27
  store i64 73, ptr %2, align 8
  store i32 1, ptr %5, align 4
  br label %52

36:                                               ; preds = %27
  %37 = load i64, ptr %4, align 8, !tbaa !18
  %38 = add i64 %37, -1
  store i64 %38, ptr %4, align 8, !tbaa !18
  call void @llvm.lifetime.start.p0(i64 8, ptr %6) #19
  %39 = load i64, ptr %4, align 8, !tbaa !18
  %40 = call noundef i64 @_ZL6mi_clzm(i64 noundef %39)
  %41 = sub i64 63, %40
  store i64 %41, ptr %6, align 8, !tbaa !18
  call void @llvm.lifetime.start.p0(i64 8, ptr %7) #19
  %42 = load i64, ptr %6, align 8, !tbaa !18
  %43 = shl i64 %42, 2
  %44 = load i64, ptr %4, align 8, !tbaa !18
  %45 = load i64, ptr %6, align 8, !tbaa !18
  %46 = sub i64 %45, 2
  %47 = lshr i64 %44, %46
  %48 = and i64 %47, 3
  %49 = add i64 %43, %48
  %50 = sub i64 %49, 3
  store i64 %50, ptr %7, align 8, !tbaa !18
  %51 = load i64, ptr %7, align 8, !tbaa !18
  store i64 %51, ptr %2, align 8
  store i32 1, ptr %5, align 4
  call void @llvm.lifetime.end.p0(i64 8, ptr %7) #19
  call void @llvm.lifetime.end.p0(i64 8, ptr %6) #19
  br label %52

52:                                               ; preds = %36, %35, %25
  call void @llvm.lifetime.end.p0(i64 8, ptr %4) #19
  %53 = load i64, ptr %2, align 8
  ret i64 %53
}

; Function Attrs: mustprogress nounwind uwtable
define i64 @mi_good_size(i64 noundef %0) #5 personality ptr @__gxx_personality_v0 {
  %2 = alloca i64, align 8
  %3 = alloca i64, align 8
  store i64 %0, ptr %3, align 8, !tbaa !18
  %4 = load i64, ptr %3, align 8, !tbaa !18
  %5 = icmp ule i64 %4, 65536
  br i1 %5, label %6, label %12

6:                                                ; preds = %1
  %7 = load i64, ptr %3, align 8, !tbaa !18
  %8 = add i64 %7, 0
  %9 = invoke noundef i64 @_ZL6mi_binm(i64 noundef %8)
          to label %10 unwind label %20

10:                                               ; preds = %6
  %11 = call noundef i64 @_Z12_mi_bin_sizem(i64 noundef %9)
  store i64 %11, ptr %2, align 8
  br label %18

12:                                               ; preds = %1
  %13 = load i64, ptr %3, align 8, !tbaa !18
  %14 = add i64 %13, 0
  %15 = call noundef i64 @_Z16_mi_os_page_sizev()
  %16 = invoke noundef i64 @_ZL12_mi_align_upmm(i64 noundef %14, i64 noundef %15)
          to label %17 unwind label %20

17:                                               ; preds = %12
  store i64 %16, ptr %2, align 8
  br label %18

18:                                               ; preds = %17, %10
  %19 = load i64, ptr %2, align 8
  ret i64 %19

20:                                               ; preds = %12, %6
  %21 = landingpad { ptr, i32 }
          catch ptr null
  %22 = extractvalue { ptr, i32 } %21, 0
  call void @__clang_call_terminate(ptr %22) #20
  unreachable
}

; Function Attrs: mustprogress nounwind uwtable
define i64 @mi_malloc_good_size(i64 noundef %0) #5 {
  %2 = alloca i64, align 8
  store i64 %0, ptr %2, align 8, !tbaa !18
  %3 = load i64, ptr %2, align 8, !tbaa !18
  %4 = call i64 @mi_good_size(i64 noundef %3) #19
  ret i64 %4
}