; Function Attrs: mustprogress nofree norecurse nosync nounwind willreturn memory(read, argmem: none, inaccessiblemem: none) uwtable
define i64 @mi_malloc_good_size(i64 noundef %0) local_unnamed_addr #13 personality ptr @__gxx_personality_v0 {
  %2 = icmp ult i64 %0, 65537
  br i1 %2, label %3, label %22

3:                                                ; preds = %1
  %4 = add nuw nsw i64 %0, 7
  %5 = lshr i64 %4, 3
  %6 = icmp samesign ult i64 %0, 65
  br i1 %6, label %7, label %11, !prof !23

7:                                                ; preds = %3
  %8 = add nuw nsw i64 %5, 1
  %9 = and i64 %8, 30
  %.inv.i.i = icmp samesign ugt i64 %0, 8
  %10 = select i1 %.inv.i.i, i64 %9, i64 1
  br label %_ZL6mi_binm.exit.i

11:                                               ; preds = %3
  %12 = add nsw i64 %5, -1
  %13 = tail call noundef range(i64 0, 65) i64 @llvm.ctlz.i64(i64 %12, i1 false)
  %14 = sub nuw nsw i64 61, %13
  %15 = lshr i64 %12, %14
  %16 = and i64 %15, 3
  %17 = shl nuw nsw i64 %13, 2
  %reass.sub = sub nsw i64 %16, %17
  %18 = add nsw i64 %reass.sub, 249
  br label %_ZL6mi_binm.exit.i

_ZL6mi_binm.exit.i:                               ; preds = %11, %7
  %.0.i.i = phi i64 [ %10, %7 ], [ %18, %11 ]
  %.idx.i.i = mul nuw nsw i64 %.0.i.i, 24
  %19 = getelementptr inbounds nuw i8, ptr getelementptr inbounds nuw (i8, ptr @_mi_heap_empty, i64 1280), i64 %.idx.i.i
  %20 = getelementptr inbounds nuw i8, ptr %19, i64 16
  %21 = load i64, ptr %20, align 8, !tbaa !60
  br label %mi_good_size.exit

22:                                               ; preds = %1
  %23 = load i64, ptr @_ZL16mi_os_mem_config, align 8, !tbaa !62
  %24 = tail call range(i64 0, 65) i64 @llvm.ctpop.i64(i64 %23)
  %25 = icmp samesign ult i64 %24, 2
  %26 = add i64 %0, -1
  %27 = add i64 %26, %23
  br i1 %25, label %28, label %31

28:                                               ; preds = %22
  %29 = sub i64 0, %23
  %30 = and i64 %27, %29
  br label %mi_good_size.exit

31:                                               ; preds = %22
  %32 = urem i64 %27, %23
  %33 = sub nuw i64 %27, %32
  br label %mi_good_size.exit

mi_good_size.exit:                                ; preds = %_ZL6mi_binm.exit.i, %28, %31
  %.0.i = phi i64 [ %21, %_ZL6mi_binm.exit.i ], [ %30, %28 ], [ %33, %31 ]
  ret i64 %.0.i
}